Certificate:
    Data:
        Version: 3 (0x2)
        Serial Number: 268435684 (0x100000e4)
        Signature Algorithm: sha256WithRSAEncryption
        Issuer: C=DE, ST=Hessen, O=privacyidea, CN=CA001
        Validity
            Not Before: Mar 27 16:54:50 2024 GMT
            Not After : Mar 27 16:54:50 2025 GMT
        Subject: CN=cn=cornelius
        Subject Public Key Info:
            Public Key Algorithm: rsaEncryption
                RSA Public-Key: (2048 bit)
                Modulus:
                    00:ce:a4:39:30:25:73:e4:9d:e6:37:3b:85:59:83:
                    ef:a3:6e:f9:83:b9:f7:48:b0:0b:d5:e8:05:40:61:
                    cd:c5:5a:bc:11:2f:5b:4e:d0:4f:b8:d0:e8:7f:05:
                    ab:ad:24:0b:90:d4:3f:60:ec:15:b6:4e:be:8e:d9:
                    26:ab:f2:2f:7f:35:c2:a6:a1:bc:52:3a:d9:88:fb:
                    b3:fa:71:20:b9:51:0e:f8:af:0d:16:be:bd:5d:b9:
                    ab:30:d5:ac:6b:3c:bc:ee:28:4a:4f:6f:d4:09:15:
                    f7:98:af:77:db:36:15:2e:1e:ee:0f:d0:d9:60:ad:
                    db:b9:c4:3f:c6:25:32:f9:e3:e9:50:b8:ec:84:a0:
                    c4:d2:9c:fd:ce:25:80:85:7e:3a:ad:4c:a7:40:1b:
                    0a:58:18:9f:c2:5e:36:e1:d1:44:e9:46:b6:dc:b4:
                    28:a2:ec:ed:02:f7:25:79:e1:86:8e:69:67:52:ee:
                    82:21:b7:84:2d:cc:e7:a8:39:57:7d:a3:1e:e9:50:
                    63:77:29:ab:e4:a5:ff:dc:ee:4c:4b:5e:08:2b:62:
                    08:2d:75:b8:26:6c:93:eb:f5:45:ea:cd:83:58:53:
                    15:46:e6:6b:43:c1:2f:d9:88:4b:3d:d5:fd:0c:ff:
                    51:52:ed:54:fb:27:2d:59:ef:4c:50:ce:71:cd:eb:
                    5a:99
                Exponent: 65537 (0x10001)
        X509v3 extensions:
            X509v3 Key Usage: 
                Digital Signature, Key Encipherment
            X509v3 Basic Constraints: 
                CA:FALSE
            Netscape Cert Type: 
                SSL Server
            Netscape Comment: 
                OpenSSL Generated Server Certificate
            X509v3 Subject Key Identifier: 
                0E:D5:BA:4E:7D:92:57:15:FD:61:4E:34:5B:E9:62:D0:20:1C:7D:08
            X509v3 Authority Key Identifier: 
                keyid:F4:A7:C0:CC:91:46:AF:64:F3:91:F2:27:F8:C8:B2:6F:8A:87:32:73
                DirName:/C=DE/ST=Hessen/O=privacyidea/CN=CA001
                serial:FB:C8:EB:AC:83:CD:12:07

            X509v3 Extended Key Usage: 
                TLS Web Server Authentication
    Signature Algorithm: sha256WithRSAEncryption
         5c:90:19:ec:c2:f7:ad:50:ef:a0:8a:56:31:d4:f0:8a:d7:ab:
         95:db:cd:a7:f4:42:66:7e:68:43:15:3c:10:ca:73:dd:e5:7a:
         1f:e8:9c:3f:9f:4c:de:91:1b:54:68:c4:4d:9d:75:47:dd:cf:
         d9:10:cf:48:01:6c:97:53:0f:9f:70:d2:41:46:37:9d:bd:a7:
         6e:c8:10:d3:0e:03:e6:61:54:46:99:20:a0:a5:35:6a:c0:c7:
         10:05:35:88:0e:8b:4b:55:8e:b2:11:5d:e9:9c:37:82:1b:02:
         a7:3f:66:bc:2b:35:c6:ad:5d:e0:49:c9:00:ab:6f:57:27:11:
         3b:98:99:e8:54:c5:32:a7:80:b8:32:f6:0d:cf:67:24:4a:4c:
         c4:97:28:33:1a:36:1a:32:5a:84:9e:e1:e8:d6:91:33:fc:30:
         4f:d4:c5:e2:c8:2a:6c:90:71:7b:10:9a:1c:9b:39:54:72:15:
         18:a5:1f:cc:0f:ee:f9:6c:8a:c4:1e:66:64:8c:16:3a:66:a7:
         b5:b4:cc:72:5b:6d:01:27:c8:7a:a2:33:7a:bd:ca:bc:59:5c:
         99:ab:86:5b:17:05:a3:25:e3:9c:5d:44:60:00:7f:85:77:a4:
         39:00:4c:46:37:55:6b:ca:9e:17:89:c6:d3:18:12:06:b7:67:
         e1:41:62:cb
-----BEGIN CERTIFICATE-----
MIID6TCCAtGgAwIBAgIEEAAA5DANBgkqhkiG9w0BAQsFADBEMQswCQYDVQQGEwJE
RTEPMA0GA1UECAwGSGVzc2VuMRQwEgYDVQQKDAtwcml2YWN5aWRlYTEOMAwGA1UE
AwwFQ0EwMDEwHhcNMjQwMzI3MTY1NDUwWhcNMjUwMzI3MTY1NDUwWjAXMRUwEwYD
VQQDDAxjbj1jb3JuZWxpdXMwggEiMA0GCSqGSIb3DQEBAQUAA4IBDwAwggEKAoIB
AQDOpDkwJXPkneY3O4VZg++jbvmDufdIsAvV6AVAYc3FWrwRL1tO0E+40Oh/Baut
JAuQ1D9g7BW2Tr6O2Sar8i9/NcKmobxSOtmI+7P6cSC5UQ74rw0Wvr1duasw1axr
PLzuKEpPb9QJFfeYr3fbNhUuHu4P0Nlgrdu5xD/GJTL54+lQuOyEoMTSnP3OJYCF
fjqtTKdAGwpYGJ/CXjbh0UTpRrbctCii7O0C9yV54YaOaWdS7oIht4QtzOeoOVd9
ox7pUGN3Kavkpf/c7kxLXggrYggtdbgmbJPr9UXqzYNYUxVG5mtDwS/ZiEs91f0M
/1FS7VT7Jy1Z70xQznHN61qZAgMBAAGjggEOMIIBCjALBgNVHQ8EBAMCBaAwCQYD
VR0TBAIwADARBglghkgBhvhCAQEEBAMCBkAwMwYJYIZIAYb4QgENBCYWJE9wZW5T
U0wgR2VuZXJhdGVkIFNlcnZlciBDZXJ0aWZpY2F0ZTAdBgNVHQ4EFgQUDtW6Tn2S
VxX9YU40W+li0CAcfQgwdAYDVR0jBG0wa4AU9KfAzJFGr2TzkfIn+Miyb4qHMnOh
SKRGMEQxCzAJBgNVBAYTAkRFMQ8wDQYDVQQIDAZIZXNzZW4xFDASBgNVBAoMC3By
aXZhY3lpZGVhMQ4wDAYDVQQDDAVDQTAwMYIJAPvI66yDzRIHMBMGA1UdJQQMMAoG
CCsGAQUFBwMBMA0GCSqGSIb3DQEBCwUAA4IBAQBckBnswvetUO+gilYx1PCK16uV
282n9EJmfmhDFTwQynPd5Xof6Jw/n0zekRtUaMRNnXVH3c/ZEM9IAWyXUw+fcNJB
RjedvaduyBDTDgPmYVRGmSCgpTVqwMcQBTWIDotLVY6yEV3pnDeCGwKnP2a8KzXG
rV3gSckAq29XJxE7mJnoVMUyp4C4MvYNz2ckSkzElygzGjYaMlqEnuHo1pEz/DBP
1MXiyCpskHF7EJocmzlUchUYpR/MD+75bIrEHmZkjBY6Zqe1tMxyW20BJ8h6ojN6
vcq8WVyZq4ZbFwWjJeOcXURgAH+Fd6Q5AExGN1Vryp4XicbTGBIGt2fhQWLL
-----END CERTIFICATE-----
