Certificate:
    Data:
        Version: 3 (0x2)
        Serial Number: 268435666 (0x100000d2)
        Signature Algorithm: sha256WithRSAEncryption
        Issuer: C=DE, ST=Hessen, O=privacyidea, CN=CA001
        Validity
            Not Before: Oct 19 13:25:20 2022 GMT
            Not After : Oct 19 13:25:20 2023 GMT
        Subject: CN=cornelius/emailAddress=user@localhost.localdomain
        Subject Public Key Info:
            Public Key Algorithm: rsaEncryption
                RSA Public-Key: (2048 bit)
                Modulus:
                    00:a0:5a:f1:d9:b6:e0:21:ef:37:12:f2:dc:18:6f:
                    f6:45:99:e7:8e:6a:57:10:84:cb:34:b2:9c:19:82:
                    71:8d:98:6f:d2:ea:cd:51:68:a9:c2:0c:a8:17:62:
                    d0:59:b8:55:4d:3e:e5:60:6c:f7:ac:9e:df:73:9c:
                    2f:27:76:be:55:e8:29:c0:e3:8c:91:42:07:83:2a:
                    f8:3c:09:ce:0b:a9:5b:80:b6:3d:d0:7d:ce:5d:a5:
                    4f:f2:4c:5a:2d:cb:1b:af:03:8b:7a:15:27:0f:fc:
                    ac:82:30:83:dc:1c:d9:68:17:f7:84:68:b0:cf:fa:
                    25:f1:ea:1d:3d:a2:52:7b:fe:f5:05:cf:53:17:73:
                    52:4b:49:1d:04:7b:46:0f:66:6d:41:01:82:b4:52:
                    dd:cd:26:ad:bc:11:8d:1c:01:ad:0e:58:a0:06:22:
                    be:67:1b:f2:bc:38:3b:71:93:1c:a9:bc:97:1b:f8:
                    6c:c3:37:a4:52:10:f4:9f:2b:b3:9f:36:08:2c:73:
                    bc:6a:55:ca:ee:3b:f7:13:f9:cc:07:02:f7:33:7d:
                    a6:85:60:74:1c:ac:d1:71:05:a2:2d:b7:8b:46:b1:
                    3e:97:0a:3c:13:b3:a6:1a:ed:fa:05:3e:cd:b4:d8:
                    2f:9b:8c:5c:77:23:e2:2b:76:b7:6f:ae:4d:c4:cb:
                    f5:57
                Exponent: 65537 (0x10001)
        X509v3 extensions:
            X509v3 Key Usage: 
                Digital Signature, Key Encipherment
            X509v3 Basic Constraints: 
                CA:FALSE
            Netscape Cert Type: 
                SSL Server
            Netscape Comment: 
                OpenSSL Generated Server Certificate
            X509v3 Subject Key Identifier: 
                4C:CA:AE:7D:28:90:5C:E4:C6:9A:42:56:65:C7:A1:92:49:21:24:8D
            X509v3 Authority Key Identifier: 
                keyid:F4:A7:C0:CC:91:46:AF:64:F3:91:F2:27:F8:C8:B2:6F:8A:87:32:73
                DirName:/C=DE/ST=Hessen/O=privacyidea/CN=CA001
                serial:FB:C8:EB:AC:83:CD:12:07

            X509v3 Extended Key Usage: 
                TLS Web Server Authentication
    Signature Algorithm: sha256WithRSAEncryption
         a6:c4:b6:e6:33:82:51:fe:f6:b0:c0:75:76:8d:11:ab:36:3c:
         a6:5b:b5:a1:25:5b:3d:33:c4:02:17:fd:b7:ff:2a:4d:dc:ee:
         64:c0:eb:40:de:c7:c7:c1:4c:75:b2:f1:2b:74:ea:ff:f6:24:
         5d:77:14:1d:f9:be:bf:62:d2:86:44:82:ff:65:b2:85:ff:bc:
         d8:ee:01:46:69:0e:a5:67:0f:12:32:01:cd:bd:b6:88:f5:90:
         40:23:53:26:fe:2a:6e:68:90:14:21:39:3e:1d:77:17:77:a7:
         15:ec:47:9d:c9:12:91:7a:cf:d5:23:2a:0f:8f:d4:f0:ba:21:
         6b:37:e0:99:94:aa:98:38:05:59:bc:66:cf:8d:43:3d:8e:6f:
         2d:e6:69:ad:d1:10:d9:ed:97:a2:0b:a4:0d:70:5c:17:9e:d5:
         1f:e0:77:d8:8f:fe:b5:f0:27:3b:75:c8:59:79:8a:21:d1:65:
         d1:90:59:6c:b2:bc:49:4a:d4:a3:f4:f5:e6:82:e0:fb:eb:ff:
         b9:a9:dc:cb:99:b3:31:05:8f:91:09:af:b7:d9:89:6f:ab:57:
         e5:fc:f5:fd:63:95:71:14:a2:0b:34:8f:81:96:2a:77:b7:1e:
         8c:fc:96:96:f9:fa:05:a8:59:98:a7:49:76:ff:84:d6:a6:aa:
         3d:a5:a5:4f
-----BEGIN CERTIFICATE-----
MIIEETCCAvmgAwIBAgIEEAAA0jANBgkqhkiG9w0BAQsFADBEMQswCQYDVQQGEwJE
RTEPMA0GA1UECAwGSGVzc2VuMRQwEgYDVQQKDAtwcml2YWN5aWRlYTEOMAwGA1UE
AwwFQ0EwMDEwHhcNMjIxMDE5MTMyNTIwWhcNMjMxMDE5MTMyNTIwWjA/MRIwEAYD
VQQDDAljb3JuZWxpdXMxKTAnBgkqhkiG9w0BCQEWGnVzZXJAbG9jYWxob3N0Lmxv
Y2FsZG9tYWluMIIBIjANBgkqhkiG9w0BAQEFAAOCAQ8AMIIBCgKCAQEAoFrx2bbg
Ie83EvLcGG/2RZnnjmpXEITLNLKcGYJxjZhv0urNUWipwgyoF2LQWbhVTT7lYGz3
rJ7fc5wvJ3a+VegpwOOMkUIHgyr4PAnOC6lbgLY90H3OXaVP8kxaLcsbrwOLehUn
D/ysgjCD3BzZaBf3hGiwz/ol8eodPaJSe/71Bc9TF3NSS0kdBHtGD2ZtQQGCtFLd
zSatvBGNHAGtDligBiK+ZxvyvDg7cZMcqbyXG/hswzekUhD0nyuznzYILHO8alXK
7jv3E/nMBwL3M32mhWB0HKzRcQWiLbeLRrE+lwo8E7OmGu36BT7NtNgvm4xcdyPi
K3a3b65NxMv1VwIDAQABo4IBDjCCAQowCwYDVR0PBAQDAgWgMAkGA1UdEwQCMAAw
EQYJYIZIAYb4QgEBBAQDAgZAMDMGCWCGSAGG+EIBDQQmFiRPcGVuU1NMIEdlbmVy
YXRlZCBTZXJ2ZXIgQ2VydGlmaWNhdGUwHQYDVR0OBBYEFEzKrn0okFzkxppCVmXH
oZJJISSNMHQGA1UdIwRtMGuAFPSnwMyRRq9k85HyJ/jIsm+KhzJzoUikRjBEMQsw
CQYDVQQGEwJERTEPMA0GA1UECAwGSGVzc2VuMRQwEgYDVQQKDAtwcml2YWN5aWRl
YTEOMAwGA1UEAwwFQ0EwMDGCCQD7yOusg80SBzATBgNVHSUEDDAKBggrBgEFBQcD
ATANBgkqhkiG9w0BAQsFAAOCAQEApsS25jOCUf72sMB1do0RqzY8plu1oSVbPTPE
Ahf9t/8qTdzuZMDrQN7Hx8FMdbLxK3Tq//YkXXcUHfm+v2LShkSC/2Wyhf+82O4B
RmkOpWcPEjIBzb22iPWQQCNTJv4qbmiQFCE5Ph13F3enFexHnckSkXrP1SMqD4/U
8LohazfgmZSqmDgFWbxmz41DPY5vLeZprdEQ2e2XogukDXBcF57VH+B32I/+tfAn
O3XIWXmKIdFl0ZBZbLK8SUrUo/T15oLg++v/uancy5mzMQWPkQmvt9mJb6tX5fz1
/WOVcRSiCzSPgZYqd7cejPyWlvn6BahZmKdJdv+E1qaqPaWlTw==
-----END CERTIFICATE-----
