Certificate:
    Data:
        Version: 3 (0x2)
        Serial Number: 268435686 (0x100000e6)
        Signature Algorithm: sha256WithRSAEncryption
        Issuer: C=DE, ST=Hessen, O=privacyidea, CN=CA001
        Validity
            Not Before: Mar 27 16:54:50 2024 GMT
            Not After : Mar 27 16:54:50 2025 GMT
        Subject: OU=realm1, CN=cornelius/emailAddress=user@localhost.localdomain
        Subject Public Key Info:
            Public Key Algorithm: rsaEncryption
                RSA Public-Key: (2048 bit)
                Modulus:
                    00:97:9b:f1:54:d2:43:be:c9:fe:70:ce:e6:31:e1:
                    5c:93:54:79:41:e2:7f:e4:b7:75:7e:8d:fb:4f:46:
                    8c:9b:e1:df:4d:f5:7d:05:4b:c9:71:f2:72:e3:d0:
                    89:d7:8d:1f:49:68:30:a6:06:4d:44:c1:1c:7a:99:
                    24:ee:55:94:ed:ff:62:7b:e5:12:7b:f5:7d:25:74:
                    22:16:19:e7:54:8c:5b:5e:bb:ee:ea:92:1a:37:11:
                    4a:e7:87:42:e4:24:00:bf:1b:09:50:27:2b:f9:5a:
                    a5:f2:79:4f:aa:0e:af:0b:2f:0f:98:fb:f0:48:6e:
                    05:65:75:37:65:73:5d:52:42:52:aa:a0:31:28:f4:
                    4d:d7:07:88:7e:b5:84:d6:81:49:3d:c7:9f:5c:d6:
                    56:56:2f:7b:18:d0:d1:bc:6d:60:c9:ed:72:e7:f9:
                    d7:4c:51:25:8e:cc:98:f2:76:3a:17:08:6e:4c:1f:
                    4d:25:2e:ca:b5:de:37:64:7b:e9:da:25:50:a8:db:
                    de:d0:15:32:64:e6:c2:5d:28:6d:21:82:ec:7e:94:
                    89:fb:b0:3e:c0:aa:05:2e:68:ef:92:4f:2f:36:63:
                    b4:3d:79:82:27:71:d9:29:4b:aa:0e:1d:cb:9c:ec:
                    64:af:74:8c:74:7a:15:3b:f6:43:98:6d:52:07:c9:
                    bc:9d
                Exponent: 65537 (0x10001)
        X509v3 extensions:
            X509v3 Key Usage: 
                Digital Signature, Key Encipherment
            X509v3 Basic Constraints: 
                CA:FALSE
            Netscape Cert Type: 
                SSL Server
            Netscape Comment: 
                OpenSSL Generated Server Certificate
            X509v3 Subject Key Identifier: 
                5A:16:6E:AF:62:C8:28:DD:32:F9:66:09:C2:5A:5C:98:AF:66:91:BD
            X509v3 Authority Key Identifier: 
                keyid:F4:A7:C0:CC:91:46:AF:64:F3:91:F2:27:F8:C8:B2:6F:8A:87:32:73
                DirName:/C=DE/ST=Hessen/O=privacyidea/CN=CA001
                serial:FB:C8:EB:AC:83:CD:12:07

            X509v3 Extended Key Usage: 
                TLS Web Server Authentication
    Signature Algorithm: sha256WithRSAEncryption
         22:a5:8d:96:79:59:59:20:43:32:4b:a6:37:94:bf:02:aa:9d:
         93:ff:86:63:7f:49:13:c5:1a:38:a8:d6:8b:e7:0f:8b:e4:d3:
         06:6f:62:20:e2:fb:ab:e1:d1:29:81:c2:ec:71:54:6e:2f:f6:
         b8:d1:17:5e:45:f7:b8:35:ea:c9:7a:f4:fd:74:6c:19:e7:c7:
         87:0d:ca:fd:2c:13:e8:36:e2:0b:9e:87:25:9e:ba:3a:b5:71:
         73:bb:ba:7a:ab:2b:43:3d:1b:28:a5:e3:02:a5:21:45:70:4a:
         ff:e1:11:66:47:9b:38:23:a8:87:52:20:43:a9:b7:5e:39:11:
         8e:7c:2c:2d:6b:9b:fa:b6:6e:84:3f:7c:21:54:7a:0e:27:f0:
         39:33:32:1b:fc:a2:01:fa:9d:e8:10:b4:8f:c1:44:42:95:be:
         7b:5a:47:30:63:55:85:84:74:89:6f:03:22:6b:3c:c1:81:85:
         93:3c:1d:57:ce:95:93:33:1e:7b:b0:98:06:b8:24:72:38:ec:
         da:16:68:73:22:a7:5a:d2:77:df:f1:56:1b:76:ae:bf:31:4f:
         e7:fb:47:f7:77:e4:34:d4:3e:4e:45:53:ab:e6:7d:69:49:b9:
         bd:fe:69:b9:8f:c7:b8:b9:9a:48:09:6a:2e:b3:d8:97:3f:19:
         a2:f4:5a:e8
-----BEGIN CERTIFICATE-----
MIIEIjCCAwqgAwIBAgIEEAAA5jANBgkqhkiG9w0BAQsFADBEMQswCQYDVQQGEwJE
RTEPMA0GA1UECAwGSGVzc2VuMRQwEgYDVQQKDAtwcml2YWN5aWRlYTEOMAwGA1UE
AwwFQ0EwMDEwHhcNMjQwMzI3MTY1NDUwWhcNMjUwMzI3MTY1NDUwWjBQMQ8wDQYD
VQQLDAZyZWFsbTExEjAQBgNVBAMMCWNvcm5lbGl1czEpMCcGCSqGSIb3DQEJARYa
dXNlckBsb2NhbGhvc3QubG9jYWxkb21haW4wggEiMA0GCSqGSIb3DQEBAQUAA4IB
DwAwggEKAoIBAQCXm/FU0kO+yf5wzuYx4VyTVHlB4n/kt3V+jftPRoyb4d9N9X0F
S8lx8nLj0InXjR9JaDCmBk1EwRx6mSTuVZTt/2J75RJ79X0ldCIWGedUjFteu+7q
kho3EUrnh0LkJAC/GwlQJyv5WqXyeU+qDq8LLw+Y+/BIbgVldTdlc11SQlKqoDEo
9E3XB4h+tYTWgUk9x59c1lZWL3sY0NG8bWDJ7XLn+ddMUSWOzJjydjoXCG5MH00l
Lsq13jdke+naJVCo297QFTJk5sJdKG0hgux+lIn7sD7AqgUuaO+STy82Y7Q9eYIn
cdkpS6oOHcuc7GSvdIx0ehU79kOYbVIHybydAgMBAAGjggEOMIIBCjALBgNVHQ8E
BAMCBaAwCQYDVR0TBAIwADARBglghkgBhvhCAQEEBAMCBkAwMwYJYIZIAYb4QgEN
BCYWJE9wZW5TU0wgR2VuZXJhdGVkIFNlcnZlciBDZXJ0aWZpY2F0ZTAdBgNVHQ4E
FgQUWhZur2LIKN0y+WYJwlpcmK9mkb0wdAYDVR0jBG0wa4AU9KfAzJFGr2TzkfIn
+Miyb4qHMnOhSKRGMEQxCzAJBgNVBAYTAkRFMQ8wDQYDVQQIDAZIZXNzZW4xFDAS
BgNVBAoMC3ByaXZhY3lpZGVhMQ4wDAYDVQQDDAVDQTAwMYIJAPvI66yDzRIHMBMG
A1UdJQQMMAoGCCsGAQUFBwMBMA0GCSqGSIb3DQEBCwUAA4IBAQAipY2WeVlZIEMy
S6Y3lL8Cqp2T/4Zjf0kTxRo4qNaL5w+L5NMGb2Ig4vur4dEpgcLscVRuL/a40Rde
Rfe4NerJevT9dGwZ58eHDcr9LBPoNuILnoclnro6tXFzu7p6qytDPRsopeMCpSFF
cEr/4RFmR5s4I6iHUiBDqbdeORGOfCwta5v6tm6EP3whVHoOJ/A5MzIb/KIB+p3o
ELSPwURClb57WkcwY1WFhHSJbwMiazzBgYWTPB1XzpWTMx57sJgGuCRyOOzaFmhz
Iqda0nff8VYbdq6/MU/n+0f3d+Q01D5ORVOr5n1pSbm9/mm5j8e4uZpICWous9iX
Pxmi9Fro
-----END CERTIFICATE-----
