Certificate:
    Data:
        Version: 3 (0x2)
        Serial Number: 268435685 (0x100000e5)
        Signature Algorithm: sha256WithRSAEncryption
        Issuer: C=DE, ST=Hessen, O=privacyidea, CN=CA001
        Validity
            Not Before: Mar 27 16:54:50 2024 GMT
            Not After : Mar 27 16:54:50 2025 GMT
        Subject: CN=cornelius
        Subject Public Key Info:
            Public Key Algorithm: rsaEncryption
                RSA Public-Key: (2048 bit)
                Modulus:
                    00:b5:67:f3:c8:de:7f:b3:ae:c7:1c:33:a7:eb:ce:
                    1a:e8:f9:13:b3:29:ce:0c:7d:95:77:65:d4:bf:d1:
                    cc:48:84:89:ad:80:ba:a8:ab:6d:43:c1:21:55:99:
                    bd:1b:8d:75:71:8b:2a:98:4e:f0:5e:d3:d7:f0:1e:
                    5f:62:e3:f0:2f:d8:ea:de:43:78:06:9e:29:ae:75:
                    f3:0b:66:f9:7b:09:a5:f9:a8:fe:94:fa:a2:74:8e:
                    0c:8f:be:49:57:c0:4a:0d:df:b9:2e:2c:8c:47:d4:
                    7b:3a:4e:58:b5:de:d1:7d:ac:7f:94:22:b4:26:44:
                    56:7a:6b:07:58:cb:2a:1b:0f:4f:e0:04:85:51:85:
                    c7:79:0d:25:4b:a1:87:26:ea:7b:da:c7:d4:a7:89:
                    2e:af:40:45:62:16:5f:b4:db:d0:5a:2a:3c:9b:15:
                    69:86:9c:79:85:6b:47:26:00:67:bb:3b:df:44:76:
                    3d:53:29:fe:5e:c7:57:a4:13:cb:25:45:c0:64:a8:
                    22:c1:0b:a9:e3:0a:d8:96:08:90:eb:16:7f:b9:06:
                    44:54:68:c3:25:2c:0d:68:9f:88:60:7d:bd:f8:df:
                    34:5c:3f:f7:f5:08:00:ca:18:d2:70:f8:43:f9:90:
                    30:ec:75:ed:7e:0c:2f:7a:cd:6e:57:8c:1c:b4:c6:
                    8c:a3
                Exponent: 65537 (0x10001)
        X509v3 extensions:
            X509v3 Key Usage: 
                Digital Signature, Key Encipherment
            X509v3 Basic Constraints: 
                CA:FALSE
            Netscape Cert Type: 
                SSL Server
            Netscape Comment: 
                OpenSSL Generated Server Certificate
            X509v3 Subject Key Identifier: 
                5A:D1:EB:44:93:94:6D:62:F7:43:64:14:D6:D9:E0:CD:D1:70:74:2B
            X509v3 Authority Key Identifier: 
                keyid:F4:A7:C0:CC:91:46:AF:64:F3:91:F2:27:F8:C8:B2:6F:8A:87:32:73
                DirName:/C=DE/ST=Hessen/O=privacyidea/CN=CA001
                serial:FB:C8:EB:AC:83:CD:12:07

            X509v3 Extended Key Usage: 
                TLS Web Server Authentication
    Signature Algorithm: sha256WithRSAEncryption
         6b:2a:65:1a:be:24:0f:e9:17:c4:76:73:71:e1:c7:03:80:c2:
         dc:ce:c1:c0:32:7e:4a:61:65:7f:72:24:10:e2:78:16:02:d2:
         80:5e:de:c3:a3:56:f2:76:90:c1:cd:d3:11:2b:41:59:c7:6a:
         7d:d8:e8:94:a2:8e:61:5d:98:03:ef:7a:04:45:5f:6f:1d:94:
         10:a6:b5:cf:33:84:ab:a1:0a:6e:f6:3a:74:85:4f:06:35:79:
         1f:22:8c:c6:9c:83:56:a7:be:f8:e7:ce:d9:69:7e:35:47:ce:
         d5:71:7b:44:47:02:96:ab:5e:7d:59:3d:79:e8:dd:0f:a3:33:
         02:93:b2:22:d1:10:2b:78:a5:eb:de:3d:ca:84:db:65:df:df:
         fb:48:4c:11:68:69:cc:b2:03:21:61:80:ab:53:4d:5d:9c:2a:
         84:25:52:8b:d9:56:7f:b7:d0:2e:70:3e:e7:36:ac:61:13:5b:
         d9:de:4a:f2:e5:e8:04:01:31:69:b1:b4:ca:05:e1:ed:3f:38:
         54:d4:42:ce:e7:39:af:7d:f2:32:6b:3e:c3:c3:cd:7a:6e:29:
         5f:60:5e:41:57:c5:d3:80:b5:79:5a:3d:42:fc:45:8e:a3:9d:
         98:d3:1a:54:a6:94:51:0f:16:92:eb:14:3b:96:a7:3a:08:b0:
         4d:4f:15:f6
-----BEGIN CERTIFICATE-----
MIID5jCCAs6gAwIBAgIEEAAA5TANBgkqhkiG9w0BAQsFADBEMQswCQYDVQQGEwJE
RTEPMA0GA1UECAwGSGVzc2VuMRQwEgYDVQQKDAtwcml2YWN5aWRlYTEOMAwGA1UE
AwwFQ0EwMDEwHhcNMjQwMzI3MTY1NDUwWhcNMjUwMzI3MTY1NDUwWjAUMRIwEAYD
VQQDDAljb3JuZWxpdXMwggEiMA0GCSqGSIb3DQEBAQUAA4IBDwAwggEKAoIBAQC1
Z/PI3n+zrsccM6frzhro+ROzKc4MfZV3ZdS/0cxIhImtgLqoq21DwSFVmb0bjXVx
iyqYTvBe09fwHl9i4/Av2OreQ3gGnimudfMLZvl7CaX5qP6U+qJ0jgyPvklXwEoN
37kuLIxH1Hs6Tli13tF9rH+UIrQmRFZ6awdYyyobD0/gBIVRhcd5DSVLoYcm6nva
x9SniS6vQEViFl+029BaKjybFWmGnHmFa0cmAGe7O99Edj1TKf5ex1ekE8slRcBk
qCLBC6njCtiWCJDrFn+5BkRUaMMlLA1on4hgfb343zRcP/f1CADKGNJw+EP5kDDs
de1+DC96zW5XjBy0xoyjAgMBAAGjggEOMIIBCjALBgNVHQ8EBAMCBaAwCQYDVR0T
BAIwADARBglghkgBhvhCAQEEBAMCBkAwMwYJYIZIAYb4QgENBCYWJE9wZW5TU0wg
R2VuZXJhdGVkIFNlcnZlciBDZXJ0aWZpY2F0ZTAdBgNVHQ4EFgQUWtHrRJOUbWL3
Q2QU1tngzdFwdCswdAYDVR0jBG0wa4AU9KfAzJFGr2TzkfIn+Miyb4qHMnOhSKRG
MEQxCzAJBgNVBAYTAkRFMQ8wDQYDVQQIDAZIZXNzZW4xFDASBgNVBAoMC3ByaXZh
Y3lpZGVhMQ4wDAYDVQQDDAVDQTAwMYIJAPvI66yDzRIHMBMGA1UdJQQMMAoGCCsG
AQUFBwMBMA0GCSqGSIb3DQEBCwUAA4IBAQBrKmUaviQP6RfEdnNx4ccDgMLczsHA
Mn5KYWV/ciQQ4ngWAtKAXt7Do1bydpDBzdMRK0FZx2p92OiUoo5hXZgD73oERV9v
HZQQprXPM4SroQpu9jp0hU8GNXkfIozGnINWp774587ZaX41R87VcXtERwKWq159
WT156N0PozMCk7Ii0RAreKXr3j3KhNtl39/7SEwRaGnMsgMhYYCrU01dnCqEJVKL
2VZ/t9AucD7nNqxhE1vZ3kry5egEATFpsbTKBeHtPzhU1ELO5zmvffIyaz7Dw816
bilfYF5BV8XTgLV5Wj1C/EWOo52Y0xpUppRRDxaS6xQ7lqc6CLBNTxX2
-----END CERTIFICATE-----
